target datalayout = "e-m:e-p270:32:32-p271:32:32-p272:64:64-i64:64-i128:128-f80:128-n8:16:32:64-S128"
target triple = "x86_64-pc-linux-gnu"

%"class.std::_Function_base" = type { %"union.std::_Any_data", ptr }
%"union.std::_Any_data" = type { %"union.std::_Nocopy_types" }
%"union.std::_Nocopy_types" = type { { i64, i64 } }
%"class.sat::lut_finder" = type { ptr, i32, %class.vector, i64, i32, %class.ptr_vector, %class.svector, %class.svector, %class.svector.2, %class.svector, [7 x i64], %class.ptr_vector, %"class.std::function" }
%class.vector = type { ptr }
%class.svector.2 = type { %class.vector.3 }
%class.vector.3 = type { ptr }
%class.svector = type { %class.vector.1 }
%class.vector.1 = type { ptr }
%class.ptr_vector = type { %class.vector.0 }
%class.vector.0 = type { ptr }
%"class.std::function" = type { %"class.std::_Function_base", ptr }

; Function Attrs: mustprogress nounwind uwtable
define linkonce_odr hidden noundef nonnull align 4 dereferenceable(4) ptr @_ZN6vectorIjLb0EjEixEj(ptr noundef nonnull align 8 dereferenceable(8) %0, i32 noundef %1) #5 comdat align 2 {
  %3 = alloca ptr, align 8
  %4 = alloca i32, align 4
  store ptr %0, ptr %3, align 8, !tbaa !41
  store i32 %1, ptr %4, align 4, !tbaa !29
  %5 = load ptr, ptr %3, align 8
  %6 = getelementptr inbounds nuw %class.vector.1, ptr %5, i32 0, i32 0
  %7 = load ptr, ptr %6, align 8, !tbaa !44
  %8 = load i32, ptr %4, align 4, !tbaa !29
  %9 = zext i32 %8 to i64
  %10 = getelementptr inbounds nuw i32, ptr %7, i64 %9
  ret ptr %10
}

; Function Attrs: mustprogress nounwind uwtable
define hidden noundef zeroext i1 @_ZN3sat10lut_finder14lut_is_definedEjj(ptr noundef nonnull align 8 dereferenceable(176) %0, i32 noundef %1, i32 noundef %2) #5 align 2 {
  %4 = alloca ptr, align 8
  %5 = alloca i32, align 4
  %6 = alloca i32, align 4
  %7 = alloca i64, align 8
  %8 = alloca i64, align 8
  store ptr %0, ptr %4, align 8, !tbaa !3
  store i32 %1, ptr %5, align 4, !tbaa !29
  store i32 %2, ptr %6, align 4, !tbaa !29
  %9 = load ptr, ptr %4, align 8
  call void @llvm.lifetime.start.p0(i64 8, ptr %7) #3
  %10 = getelementptr inbounds nuw %"class.sat::lut_finder", ptr %9, i32 0, i32 3
  %11 = load i64, ptr %10, align 8, !tbaa !55
  %12 = getelementptr inbounds nuw %"class.sat::lut_finder", ptr %9, i32 0, i32 3
  %13 = load i64, ptr %12, align 8, !tbaa !55
  %14 = load i32, ptr %5, align 4, !tbaa !29
  %15 = zext i32 %14 to i64
  %16 = shl i64 1, %15
  %17 = lshr i64 %13, %16
  %18 = or i64 %11, %17
  store i64 %18, ptr %7, align 8, !tbaa !30
  call void @llvm.lifetime.start.p0(i64 8, ptr %8) #3
  %19 = getelementptr inbounds nuw %"class.sat::lut_finder", ptr %9, i32 0, i32 10
  %20 = load i32, ptr %5, align 4, !tbaa !29
  %21 = zext i32 %20 to i64
  %22 = getelementptr inbounds nuw [7 x i64], ptr %19, i64 0, i64 %21
  %23 = load i64, ptr %22, align 8, !tbaa !30
  store i64 %23, ptr %8, align 8, !tbaa !30
  %24 = load i32, ptr %6, align 4, !tbaa !29
  %25 = icmp ult i32 %24, 6
  br i1 %25, label %26, label %34

26:                                               ; preds = %3
  %27 = load i32, ptr %6, align 4, !tbaa !29
  %28 = zext i32 %27 to i64
  %29 = shl i64 1, %28
  %30 = shl i64 1, %29
  %31 = sub i64 %30, 1
  %32 = load i64, ptr %8, align 8, !tbaa !30
  %33 = and i64 %32, %31
  store i64 %33, ptr %8, align 8, !tbaa !30
  br label %34

34:                                               ; preds = %26, %3
  %35 = load i64, ptr %7, align 8, !tbaa !30
  %36 = load i64, ptr %8, align 8, !tbaa !30
  %37 = and i64 %35, %36
  %38 = load i64, ptr %8, align 8, !tbaa !30
  %39 = icmp eq i64 %37, %38
  call void @llvm.lifetime.end.p0(i64 8, ptr %8) #3
  call void @llvm.lifetime.end.p0(i64 8, ptr %7) #3
  ret i1 %39
}

; Function Attrs: mustprogress nounwind uwtable
define linkonce_odr hidden noundef i32 @_ZNK6vectorIjLb0EjE4sizeEv(ptr noundef nonnull align 8 dereferenceable(8) %0) #5 comdat align 2 {
  %2 = alloca i32, align 4
  %3 = alloca ptr, align 8
  store ptr %0, ptr %3, align 8, !tbaa !41
  %4 = load ptr, ptr %3, align 8
  %5 = getelementptr inbounds nuw %class.vector.1, ptr %4, i32 0, i32 0
  %6 = load ptr, ptr %5, align 8, !tbaa !44
  %7 = icmp eq ptr %6, null
  br i1 %7, label %8, label %9

8:                                                ; preds = %1
  store i32 0, ptr %2, align 4
  br label %14

9:                                                ; preds = %1
  %10 = getelementptr inbounds nuw %class.vector.1, ptr %4, i32 0, i32 0
  %11 = load ptr, ptr %10, align 8, !tbaa !44
  %12 = getelementptr inbounds i32, ptr %11, i64 -1
  %13 = load i32, ptr %12, align 4, !tbaa !29
  store i32 %13, ptr %2, align 4
  br label %14

14:                                               ; preds = %9, %8
  %15 = load i32, ptr %2, align 4
  ret i32 %15
}

; Function Attrs: mustprogress uwtable
define hidden noundef i64 @_ZN3sat10lut_finder19convert_combinationER7svectorIjjERj(ptr noundef nonnull align 8 dereferenceable(176) %0, ptr noundef nonnull align 8 dereferenceable(8) %1, ptr noundef nonnull align 4 dereferenceable(4) %2) #4 align 2 {
  %4 = alloca ptr, align 8
  %5 = alloca ptr, align 8
  %6 = alloca ptr, align 8
  %7 = alloca i32, align 4
  %8 = alloca i64, align 8
  %9 = alloca i64, align 8
  %10 = alloca i32, align 4
  %11 = alloca i32, align 4
  store ptr %0, ptr %4, align 8, !tbaa !3
  store ptr %1, ptr %5, align 8, !tbaa !95
  store ptr %2, ptr %6, align 8, !tbaa !45
  %12 = load ptr, ptr %4, align 8
  call void @llvm.lifetime.start.p0(i64 4, ptr %7) #3
  store i32 0, ptr %7, align 4, !tbaa !29
  %13 = load ptr, ptr %5, align 8, !tbaa !95
  %14 = call noundef i32 @_ZNK6vectorIjLb0EjE4sizeEv(ptr noundef nonnull align 8 dereferenceable(8) %13)
  store i32 %14, ptr %7, align 4, !tbaa !29
  br label %15

15:                                               ; preds = %25, %3
  %16 = load i32, ptr %7, align 4, !tbaa !29
  %17 = add i32 %16, -1
  store i32 %17, ptr %7, align 4, !tbaa !29
  %18 = icmp ugt i32 %16, 0
  br i1 %18, label %19, label %26

19:                                               ; preds = %15
  %20 = load i32, ptr %7, align 4, !tbaa !29
  %21 = load ptr, ptr %5, align 8, !tbaa !95
  %22 = call noundef i32 @_ZNK6vectorIjLb0EjE4sizeEv(ptr noundef nonnull align 8 dereferenceable(8) %21)
  %23 = call noundef zeroext i1 @_ZN3sat10lut_finder14lut_is_definedEjj(ptr noundef nonnull align 8 dereferenceable(176) %12, i32 noundef %20, i32 noundef %22)
  br i1 %23, label %24, label %25

24:                                               ; preds = %19
  br label %26

25:                                               ; preds = %19
  br label %15, !llvm.loop !97

26:                                               ; preds = %24, %15
  %27 = load ptr, ptr %5, align 8, !tbaa !95
  %28 = load i32, ptr %7, align 4, !tbaa !29
  %29 = call noundef nonnull align 4 dereferenceable(4) ptr @_ZN6vectorIjLb0EjEixEj(ptr noundef nonnull align 8 dereferenceable(8) %27, i32 noundef %28)
  %30 = load i32, ptr %29, align 4, !tbaa !29
  %31 = load ptr, ptr %6, align 8, !tbaa !45
  store i32 %30, ptr %31, align 4, !tbaa !29
  %32 = load ptr, ptr %5, align 8, !tbaa !95
  %33 = load ptr, ptr %6, align 8, !tbaa !45
  call void @_ZN6vectorIjLb0EjE5eraseERKj(ptr noundef nonnull align 8 dereferenceable(8) %32, ptr noundef nonnull align 4 dereferenceable(4) %33)
  call void @llvm.lifetime.start.p0(i64 8, ptr %8) #3
  store i64 0, ptr %8, align 8, !tbaa !30
  call void @llvm.lifetime.start.p0(i64 8, ptr %9) #3
  %34 = getelementptr inbounds nuw %"class.sat::lut_finder", ptr %12, i32 0, i32 10
  %35 = load i32, ptr %7, align 4, !tbaa !29
  %36 = zext i32 %35 to i64
  %37 = getelementptr inbounds nuw [7 x i64], ptr %34, i64 0, i64 %36
  %38 = load i64, ptr %37, align 8, !tbaa !30
  store i64 %38, ptr %9, align 8, !tbaa !30
  call void @llvm.lifetime.start.p0(i64 4, ptr %10) #3
  store i32 0, ptr %10, align 4, !tbaa !29
  call void @llvm.lifetime.start.p0(i64 4, ptr %11) #3
  store i32 0, ptr %11, align 4, !tbaa !29
  br label %39

39:                                               ; preds = %68, %26
  %40 = load i32, ptr %11, align 4, !tbaa !29
  %41 = icmp ult i32 %40, 64
  br i1 %41, label %43, label %42

42:                                               ; preds = %39
  call void @llvm.lifetime.end.p0(i64 4, ptr %11) #3
  br label %71

43:                                               ; preds = %39
  %44 = load i64, ptr %9, align 8, !tbaa !30
  %45 = load i32, ptr %11, align 4, !tbaa !29
  %46 = zext i32 %45 to i64
  %47 = shl i64 1, %46
  %48 = and i64 %44, %47
  %49 = icmp ne i64 0, %48
  br i1 %49, label %50, label %67

50:                                               ; preds = %43
  %51 = getelementptr inbounds nuw %"class.sat::lut_finder", ptr %12, i32 0, i32 3
  %52 = load i64, ptr %51, align 8, !tbaa !55
  %53 = load i32, ptr %11, align 4, !tbaa !29
  %54 = zext i32 %53 to i64
  %55 = shl i64 1, %54
  %56 = and i64 %52, %55
  %57 = icmp ne i64 0, %56
  br i1 %57, label %58, label %64

58:                                               ; preds = %50
  %59 = load i32, ptr %10, align 4, !tbaa !29
  %60 = zext i32 %59 to i64
  %61 = shl i64 1, %60
  %62 = load i64, ptr %8, align 8, !tbaa !30
  %63 = or i64 %62, %61
  store i64 %63, ptr %8, align 8, !tbaa !30
  br label %64

64:                                               ; preds = %58, %50
  %65 = load i32, ptr %10, align 4, !tbaa !29
  %66 = add i32 %65, 1
  store i32 %66, ptr %10, align 4, !tbaa !29
  br label %67

67:                                               ; preds = %64, %43
  br label %68

68:                                               ; preds = %67
  %69 = load i32, ptr %11, align 4, !tbaa !29
  %70 = add i32 %69, 1
  store i32 %70, ptr %11, align 4, !tbaa !29
  br label %39, !llvm.loop !98

71:                                               ; preds = %42
  %72 = load i64, ptr %8, align 8, !tbaa !30
  call void @llvm.lifetime.end.p0(i64 4, ptr %10) #3
  call void @llvm.lifetime.end.p0(i64 8, ptr %9) #3
  call void @llvm.lifetime.end.p0(i64 8, ptr %8) #3
  call void @llvm.lifetime.end.p0(i64 4, ptr %7) #3
  ret i64 %72
}