; Function Attrs: mustprogress uwtable
define hidden noundef i64 @_ZN3sat10lut_finder19convert_combinationER7svectorIjjERj(ptr noundef nonnull readonly align 8 captures(none) dereferenceable(176) %0, ptr noundef nonnull align 8 dereferenceable(8) %1, ptr noundef nonnull align 4 dereferenceable(4) %2) local_unnamed_addr #3 align 2 {
  %4 = load ptr, ptr %1, align 8, !tbaa !31
  %5 = icmp eq ptr %4, null
  br i1 %5, label %_ZNK6vectorIjLb0EjE4sizeEv.exit.split.us.preheader, label %_ZNK6vectorIjLb0EjE4sizeEv.exit.split.preheader

_ZNK6vectorIjLb0EjE4sizeEv.exit.split.preheader:  ; preds = %3
  %6 = getelementptr inbounds i8, ptr %4, i64 -4
  %7 = load i32, ptr %6, align 4, !tbaa !10
  %8 = zext i32 %7 to i64
  %9 = getelementptr inbounds i8, ptr %4, i64 -4
  %10 = getelementptr inbounds nuw i8, ptr %0, i64 80
  %.in31 = getelementptr inbounds nuw i8, ptr %0, i64 24
  %11 = load i64, ptr %.in31, align 8
  br label %_ZNK6vectorIjLb0EjE4sizeEv.exit.split

_ZNK6vectorIjLb0EjE4sizeEv.exit.split.us.preheader: ; preds = %3
  %.in3147 = getelementptr inbounds nuw i8, ptr %0, i64 24
  br label %.split.us

_ZNK6vectorIjLb0EjE4sizeEv.exit.split:            ; preds = %_ZNK6vectorIjLb0EjE4sizeEv.exit.split.preheader, %_ZNK6vectorIjLb0EjE4sizeEv.exit26
  %indvars.iv = phi i64 [ %8, %_ZNK6vectorIjLb0EjE4sizeEv.exit.split.preheader ], [ %indvars.iv.next, %_ZNK6vectorIjLb0EjE4sizeEv.exit26 ]
  %.not = icmp eq i64 %indvars.iv, 0
  br i1 %.not, label %.split.us.loopexit53, label %_ZNK6vectorIjLb0EjE4sizeEv.exit26

_ZNK6vectorIjLb0EjE4sizeEv.exit26:                ; preds = %_ZNK6vectorIjLb0EjE4sizeEv.exit.split
  %indvars.iv.next = add nsw i64 %indvars.iv, -1
  %12 = load i32, ptr %9, align 4, !tbaa !10
  %.fr = freeze i32 %12
  %13 = and i64 %indvars.iv.next, 4294967295
  %14 = getelementptr inbounds nuw [7 x i64], ptr %10, i64 0, i64 %13
  %15 = icmp ult i32 %.fr, 6
  %16 = zext nneg i32 %.fr to i64
  %17 = shl nuw nsw i64 1, %16
  %notmask.i = shl nsw i64 -1, %17
  %18 = xor i64 %notmask.i, -1
  %spec.select = select i1 %15, i64 %18, i64 -1
  %19 = load i64, ptr %14, align 8, !tbaa !34
  %.0.i27 = and i64 %19, %spec.select
  %20 = shl nuw i64 1, %13
  %21 = lshr i64 %11, %20
  %22 = or i64 %21, %11
  %23 = and i64 %22, %.0.i27
  %24 = icmp eq i64 %23, %.0.i27
  br i1 %24, label %.split.us.loopexit53, label %_ZNK6vectorIjLb0EjE4sizeEv.exit.split, !llvm.loop !93

.split.us.loopexit53:                             ; preds = %_ZNK6vectorIjLb0EjE4sizeEv.exit26, %_ZNK6vectorIjLb0EjE4sizeEv.exit.split
  %.us-phi.ph54 = phi i64 [ 4294967295, %_ZNK6vectorIjLb0EjE4sizeEv.exit.split ], [ %indvars.iv.next, %_ZNK6vectorIjLb0EjE4sizeEv.exit26 ]
  %25 = and i64 %.us-phi.ph54, 4294967295
  br label %.split.us

.split.us:                                        ; preds = %.split.us.loopexit53, %_ZNK6vectorIjLb0EjE4sizeEv.exit.split.us.preheader
  %.in3149 = phi ptr [ %.in3147, %_ZNK6vectorIjLb0EjE4sizeEv.exit.split.us.preheader ], [ %.in31, %.split.us.loopexit53 ]
  %.us-phi = phi i64 [ 4294967295, %_ZNK6vectorIjLb0EjE4sizeEv.exit.split.us.preheader ], [ %25, %.split.us.loopexit53 ]
  %26 = getelementptr inbounds nuw i8, ptr %0, i64 80
  %27 = getelementptr inbounds nuw i32, ptr %4, i64 %.us-phi
  %28 = load i32, ptr %27, align 4, !tbaa !10
  store i32 %28, ptr %2, align 4, !tbaa !10
  tail call void @_ZN6vectorIjLb0EjE5eraseERKj(ptr noundef nonnull align 8 dereferenceable(8) %1, ptr noundef nonnull align 4 dereferenceable(4) %2)
  %29 = getelementptr inbounds nuw [7 x i64], ptr %26, i64 0, i64 %.us-phi
  %30 = load i64, ptr %29, align 8, !tbaa !34
  %31 = load i64, ptr %.in3149, align 8
  br label %33

32:                                               ; preds = %42
  ret i64 %.2

33:                                               ; preds = %.split.us, %42
  %indvars.iv42 = phi i64 [ 0, %.split.us ], [ %indvars.iv.next43, %42 ]
  %.01933 = phi i32 [ 0, %.split.us ], [ %.1, %42 ]
  %.02132 = phi i64 [ 0, %.split.us ], [ %.2, %42 ]
  %34 = shl nuw i64 1, %indvars.iv42
  %35 = and i64 %34, %30
  %.not23 = icmp eq i64 %35, 0
  br i1 %.not23, label %42, label %36

36:                                               ; preds = %33
  %37 = and i64 %31, %34
  %.not24 = icmp eq i64 %37, 0
  %38 = zext nneg i32 %.01933 to i64
  %39 = shl nuw i64 1, %38
  %40 = select i1 %.not24, i64 0, i64 %39
  %.122 = or i64 %40, %.02132
  %41 = add i32 %.01933, 1
  br label %42

42:                                               ; preds = %33, %36
  %.2 = phi i64 [ %.122, %36 ], [ %.02132, %33 ]
  %.1 = phi i32 [ %41, %36 ], [ %.01933, %33 ]
  %indvars.iv.next43 = add nuw nsw i64 %indvars.iv42, 1
  %exitcond.not = icmp eq i64 %indvars.iv.next43, 64
  br i1 %exitcond.not, label %32, label %33, !llvm.loop !94
}